target datalayout = "e-m:e-p270:32:32-p271:32:32-p272:64:64-i64:64-i128:128-f80:128-n8:16:32:64-S128"
target triple = "x86_64-pc-linux-gnu"

%struct.ForEachState = type { ptr, i32 }
%struct.List = type { i32, i32, i32, ptr, [0 x %union.ListCell] }
%union.ListCell = type { ptr }
%struct.RangeTblEntry = type { i32, ptr, ptr, i32, i32, i8, i8, i32, i32, ptr, ptr, i8, i32, i32, ptr, ptr, ptr, ptr, ptr, i8, ptr, ptr, ptr, i32, i8, ptr, ptr, ptr, ptr, double, ptr, i8, i8, ptr }
%struct.Node = type { i32 }

; Function Attrs: nounwind uwtable
define internal ptr @findDefaultOnlyColumns(ptr noundef %0) #0 {
  %2 = alloca ptr, align 8
  %3 = alloca ptr, align 8
  %4 = alloca ptr, align 8
  %5 = alloca %struct.ForEachState, align 8
  %6 = alloca i32, align 4
  %7 = alloca ptr, align 8
  %8 = alloca ptr, align 8
  %9 = alloca i32, align 4
  %10 = alloca %struct.ForEachState, align 8
  %11 = alloca ptr, align 8
  %12 = alloca %struct.ForEachState, align 8
  %13 = alloca ptr, align 8
  store ptr %0, ptr %2, align 8
  call void @llvm.lifetime.start.p0(i64 8, ptr %3) #9
  store ptr null, ptr %3, align 8
  call void @llvm.lifetime.start.p0(i64 8, ptr %4) #9
  call void @llvm.lifetime.start.p0(i64 16, ptr %5) #9
  %14 = getelementptr inbounds nuw %struct.ForEachState, ptr %5, i32 0, i32 0
  %15 = load ptr, ptr %2, align 8
  %16 = getelementptr inbounds nuw %struct.RangeTblEntry, ptr %15, i32 0, i32 21
  %17 = load ptr, ptr %16, align 8
  store ptr %17, ptr %14, align 8
  %18 = getelementptr inbounds nuw %struct.ForEachState, ptr %5, i32 0, i32 1
  store i32 0, ptr %18, align 8
  %19 = getelementptr i8, ptr %5, i64 12
  call void @llvm.memset.p0.i64(ptr align 4 %19, i8 0, i64 4, i1 false)
  br label %20

20:                                               ; preds = %159, %1
  %21 = getelementptr inbounds nuw %struct.ForEachState, ptr %5, i32 0, i32 0
  %22 = load ptr, ptr %21, align 8
  %23 = icmp ne ptr %22, null
  br i1 %23, label %24, label %41

24:                                               ; preds = %20
  %25 = getelementptr inbounds nuw %struct.ForEachState, ptr %5, i32 0, i32 1
  %26 = load i32, ptr %25, align 8
  %27 = getelementptr inbounds nuw %struct.ForEachState, ptr %5, i32 0, i32 0
  %28 = load ptr, ptr %27, align 8
  %29 = getelementptr inbounds nuw %struct.List, ptr %28, i32 0, i32 1
  %30 = load i32, ptr %29, align 4
  %31 = icmp slt i32 %26, %30
  br i1 %31, label %32, label %41

32:                                               ; preds = %24
  %33 = getelementptr inbounds nuw %struct.ForEachState, ptr %5, i32 0, i32 0
  %34 = load ptr, ptr %33, align 8
  %35 = getelementptr inbounds nuw %struct.List, ptr %34, i32 0, i32 3
  %36 = load ptr, ptr %35, align 8
  %37 = getelementptr inbounds nuw %struct.ForEachState, ptr %5, i32 0, i32 1
  %38 = load i32, ptr %37, align 8
  %39 = sext i32 %38 to i64
  %40 = getelementptr inbounds %union.ListCell, ptr %36, i64 %39
  store ptr %40, ptr %4, align 8
  br label %42

41:                                               ; preds = %24, %20
  store ptr null, ptr %4, align 8
  br label %42

42:                                               ; preds = %41, %32
  %43 = phi i32 [ 1, %32 ], [ 0, %41 ]
  %44 = icmp ne i32 %43, 0
  br i1 %44, label %46, label %45

45:                                               ; preds = %42
  store i32 2, ptr %6, align 4
  br label %163

46:                                               ; preds = %42
  call void @llvm.lifetime.start.p0(i64 8, ptr %7) #9
  %47 = load ptr, ptr %4, align 8
  %48 = load ptr, ptr %47, align 8
  store ptr %48, ptr %7, align 8
  call void @llvm.lifetime.start.p0(i64 8, ptr %8) #9
  call void @llvm.lifetime.start.p0(i64 4, ptr %9) #9
  %49 = load ptr, ptr %3, align 8
  %50 = icmp eq ptr %49, null
  br i1 %50, label %51, label %101

51:                                               ; preds = %46
  store i32 0, ptr %9, align 4
  call void @llvm.lifetime.start.p0(i64 16, ptr %10) #9
  %52 = getelementptr inbounds nuw %struct.ForEachState, ptr %10, i32 0, i32 0
  %53 = load ptr, ptr %7, align 8
  store ptr %53, ptr %52, align 8
  %54 = getelementptr inbounds nuw %struct.ForEachState, ptr %10, i32 0, i32 1
  store i32 0, ptr %54, align 8
  %55 = getelementptr i8, ptr %10, i64 12
  call void @llvm.memset.p0.i64(ptr align 4 %55, i8 0, i64 4, i1 false)
  br label %56

56:                                               ; preds = %96, %51
  %57 = getelementptr inbounds nuw %struct.ForEachState, ptr %10, i32 0, i32 0
  %58 = load ptr, ptr %57, align 8
  %59 = icmp ne ptr %58, null
  br i1 %59, label %60, label %77

60:                                               ; preds = %56
  %61 = getelementptr inbounds nuw %struct.ForEachState, ptr %10, i32 0, i32 1
  %62 = load i32, ptr %61, align 8
  %63 = getelementptr inbounds nuw %struct.ForEachState, ptr %10, i32 0, i32 0
  %64 = load ptr, ptr %63, align 8
  %65 = getelementptr inbounds nuw %struct.List, ptr %64, i32 0, i32 1
  %66 = load i32, ptr %65, align 4
  %67 = icmp slt i32 %62, %66
  br i1 %67, label %68, label %77

68:                                               ; preds = %60
  %69 = getelementptr inbounds nuw %struct.ForEachState, ptr %10, i32 0, i32 0
  %70 = load ptr, ptr %69, align 8
  %71 = getelementptr inbounds nuw %struct.List, ptr %70, i32 0, i32 3
  %72 = load ptr, ptr %71, align 8
  %73 = getelementptr inbounds nuw %struct.ForEachState, ptr %10, i32 0, i32 1
  %74 = load i32, ptr %73, align 8
  %75 = sext i32 %74 to i64
  %76 = getelementptr inbounds %union.ListCell, ptr %72, i64 %75
  store ptr %76, ptr %8, align 8
  br label %78

77:                                               ; preds = %60, %56
  store ptr null, ptr %8, align 8
  br label %78

78:                                               ; preds = %77, %68
  %79 = phi i32 [ 1, %68 ], [ 0, %77 ]
  %80 = icmp ne i32 %79, 0
  br i1 %80, label %82, label %81

81:                                               ; preds = %78
  store i32 5, ptr %6, align 4
  call void @llvm.lifetime.end.p0(i64 16, ptr %10) #9
  br label %100

82:                                               ; preds = %78
  call void @llvm.lifetime.start.p0(i64 8, ptr %11) #9
  %83 = load ptr, ptr %8, align 8
  %84 = load ptr, ptr %83, align 8
  store ptr %84, ptr %11, align 8
  %85 = load i32, ptr %9, align 4
  %86 = add i32 %85, 1
  store i32 %86, ptr %9, align 4
  %87 = load ptr, ptr %11, align 8
  %88 = getelementptr inbounds nuw %struct.Node, ptr %87, i32 0, i32 0
  %89 = load i32, ptr %88, align 4
  %90 = icmp eq i32 %89, 57
  br i1 %90, label %91, label %95

91:                                               ; preds = %82
  %92 = load ptr, ptr %3, align 8
  %93 = load i32, ptr %9, align 4
  %94 = call ptr @bms_add_member(ptr noundef %92, i32 noundef %93)
  store ptr %94, ptr %3, align 8
  br label %95

95:                                               ; preds = %91, %82
  call void @llvm.lifetime.end.p0(i64 8, ptr %11) #9
  br label %96

96:                                               ; preds = %95
  %97 = getelementptr inbounds nuw %struct.ForEachState, ptr %10, i32 0, i32 1
  %98 = load i32, ptr %97, align 8
  %99 = add i32 %98, 1
  store i32 %99, ptr %97, align 8
  br label %56, !llvm.loop !64

100:                                              ; preds = %81
  br label %151

101:                                              ; preds = %46
  store i32 0, ptr %9, align 4
  call void @llvm.lifetime.start.p0(i64 16, ptr %12) #9
  %102 = getelementptr inbounds nuw %struct.ForEachState, ptr %12, i32 0, i32 0
  %103 = load ptr, ptr %7, align 8
  store ptr %103, ptr %102, align 8
  %104 = getelementptr inbounds nuw %struct.ForEachState, ptr %12, i32 0, i32 1
  store i32 0, ptr %104, align 8
  %105 = getelementptr i8, ptr %12, i64 12
  call void @llvm.memset.p0.i64(ptr align 4 %105, i8 0, i64 4, i1 false)
  br label %106

106:                                              ; preds = %146, %101
  %107 = getelementptr inbounds nuw %struct.ForEachState, ptr %12, i32 0, i32 0
  %108 = load ptr, ptr %107, align 8
  %109 = icmp ne ptr %108, null
  br i1 %109, label %110, label %127

110:                                              ; preds = %106
  %111 = getelementptr inbounds nuw %struct.ForEachState, ptr %12, i32 0, i32 1
  %112 = load i32, ptr %111, align 8
  %113 = getelementptr inbounds nuw %struct.ForEachState, ptr %12, i32 0, i32 0
  %114 = load ptr, ptr %113, align 8
  %115 = getelementptr inbounds nuw %struct.List, ptr %114, i32 0, i32 1
  %116 = load i32, ptr %115, align 4
  %117 = icmp slt i32 %112, %116
  br i1 %117, label %118, label %127

118:                                              ; preds = %110
  %119 = getelementptr inbounds nuw %struct.ForEachState, ptr %12, i32 0, i32 0
  %120 = load ptr, ptr %119, align 8
  %121 = getelementptr inbounds nuw %struct.List, ptr %120, i32 0, i32 3
  %122 = load ptr, ptr %121, align 8
  %123 = getelementptr inbounds nuw %struct.ForEachState, ptr %12, i32 0, i32 1
  %124 = load i32, ptr %123, align 8
  %125 = sext i32 %124 to i64
  %126 = getelementptr inbounds %union.ListCell, ptr %122, i64 %125
  store ptr %126, ptr %8, align 8
  br label %128

127:                                              ; preds = %110, %106
  store ptr null, ptr %8, align 8
  br label %128

128:                                              ; preds = %127, %118
  %129 = phi i32 [ 1, %118 ], [ 0, %127 ]
  %130 = icmp ne i32 %129, 0
  br i1 %130, label %132, label %131

131:                                              ; preds = %128
  store i32 8, ptr %6, align 4
  call void @llvm.lifetime.end.p0(i64 16, ptr %12) #9
  br label %150

132:                                              ; preds = %128
  call void @llvm.lifetime.start.p0(i64 8, ptr %13) #9
  %133 = load ptr, ptr %8, align 8
  %134 = load ptr, ptr %133, align 8
  store ptr %134, ptr %13, align 8
  %135 = load i32, ptr %9, align 4
  %136 = add i32 %135, 1
  store i32 %136, ptr %9, align 4
  %137 = load ptr, ptr %13, align 8
  %138 = getelementptr inbounds nuw %struct.Node, ptr %137, i32 0, i32 0
  %139 = load i32, ptr %138, align 4
  %140 = icmp eq i32 %139, 57
  br i1 %140, label %145, label %141

141:                                              ; preds = %132
  %142 = load ptr, ptr %3, align 8
  %143 = load i32, ptr %9, align 4
  %144 = call ptr @bms_del_member(ptr noundef %142, i32 noundef %143)
  store ptr %144, ptr %3, align 8
  br label %145

145:                                              ; preds = %141, %132
  call void @llvm.lifetime.end.p0(i64 8, ptr %13) #9
  br label %146

146:                                              ; preds = %145
  %147 = getelementptr inbounds nuw %struct.ForEachState, ptr %12, i32 0, i32 1
  %148 = load i32, ptr %147, align 8
  %149 = add i32 %148, 1
  store i32 %149, ptr %147, align 8
  br label %106, !llvm.loop !65

150:                                              ; preds = %131
  br label %151

151:                                              ; preds = %150, %100
  %152 = load ptr, ptr %3, align 8
  %153 = icmp eq ptr %152, null
  br i1 %153, label %154, label %155

154:                                              ; preds = %151
  store i32 2, ptr %6, align 4
  br label %156

155:                                              ; preds = %151
  store i32 0, ptr %6, align 4
  br label %156

156:                                              ; preds = %155, %154
  call void @llvm.lifetime.end.p0(i64 4, ptr %9) #9
  call void @llvm.lifetime.end.p0(i64 8, ptr %8) #9
  call void @llvm.lifetime.end.p0(i64 8, ptr %7) #9
  %157 = load i32, ptr %6, align 4
  switch i32 %157, label %163 [
    i32 0, label %158
  ]

158:                                              ; preds = %156
  br label %159

159:                                              ; preds = %158
  %160 = getelementptr inbounds nuw %struct.ForEachState, ptr %5, i32 0, i32 1
  %161 = load i32, ptr %160, align 8
  %162 = add i32 %161, 1
  store i32 %162, ptr %160, align 8
  br label %20, !llvm.loop !66

163:                                              ; preds = %156, %45
  call void @llvm.lifetime.end.p0(i64 16, ptr %5) #9
  br label %164

164:                                              ; preds = %163
  %165 = load ptr, ptr %3, align 8
  store i32 1, ptr %6, align 4
  call void @llvm.lifetime.end.p0(i64 8, ptr %4) #9
  call void @llvm.lifetime.end.p0(i64 8, ptr %3) #9
  ret ptr %165
}