; Function Attrs: nounwind uwtable
define internal fastcc ptr @findDefaultOnlyColumns(ptr readonly captures(address_is_null) %.136.val) unnamed_addr #0 {
  %1 = getelementptr inbounds nuw i8, ptr %.136.val, i64 4
  %.not = icmp eq ptr %.136.val, null
  br i1 %.not, label %.thread, label %.lr.ph40

.lr.ph40:                                         ; preds = %0
  %2 = getelementptr inbounds nuw i8, ptr %.136.val, i64 16
  %3 = load i32, ptr %1, align 4
  %4 = icmp sgt i32 %3, 0
  br i1 %4, label %.lr.ph71, label %.thread

.thread4.thread63:                                ; preds = %.lr.ph, %.preheader11, %.thread4
  %.466 = phi ptr [ %.4, %.thread4 ], [ %.03970, %.preheader11 ], [ %.03970, %.lr.ph ]
  %indvars.iv.next56 = add nuw nsw i64 %indvars.iv5569, 1
  %5 = load i32, ptr %1, align 4
  %6 = sext i32 %5 to i64
  %7 = icmp slt i64 %indvars.iv.next56, %6
  br i1 %7, label %.lr.ph71, label %.thread

.lr.ph71:                                         ; preds = %.lr.ph40, %.thread4.thread63
  %.03970 = phi ptr [ %.466, %.thread4.thread63 ], [ null, %.lr.ph40 ]
  %indvars.iv5569 = phi i64 [ %indvars.iv.next56, %.thread4.thread63 ], [ 0, %.lr.ph40 ]
  %8 = load ptr, ptr %2, align 8
  %9 = getelementptr inbounds nuw %union.ListCell, ptr %8, i64 %indvars.iv5569
  %10 = load ptr, ptr %9, align 8
  %11 = icmp eq ptr %.03970, null
  %12 = getelementptr inbounds nuw i8, ptr %10, i64 4
  %.not47 = icmp eq ptr %10, null
  br i1 %11, label %.preheader, label %.preheader11

.preheader11:                                     ; preds = %.lr.ph71
  br i1 %.not47, label %.thread4.thread63, label %.lr.ph

.lr.ph:                                           ; preds = %.preheader11
  %13 = getelementptr inbounds nuw i8, ptr %10, i64 16
  %14 = load i32, ptr %12, align 4
  %15 = icmp sgt i32 %14, 0
  br i1 %15, label %.lr.ph22, label %.thread4.thread63

.preheader:                                       ; preds = %.lr.ph71
  br i1 %.not47, label %.thread, label %.lr.ph27

.lr.ph27:                                         ; preds = %.preheader
  %16 = getelementptr inbounds nuw i8, ptr %10, i64 16
  %17 = load i32, ptr %12, align 4
  %18 = icmp sgt i32 %17, 0
  br i1 %18, label %.lr.ph36, label %.thread

.lr.ph36:                                         ; preds = %.lr.ph27, %27
  %19 = phi i32 [ %28, %27 ], [ %17, %.lr.ph27 ]
  %indvars.iv49 = phi i64 [ %indvars.iv.next50, %27 ], [ 0, %.lr.ph27 ]
  %.22633 = phi ptr [ %.3, %27 ], [ null, %.lr.ph27 ]
  %20 = load ptr, ptr %16, align 8
  %21 = getelementptr inbounds nuw %union.ListCell, ptr %20, i64 %indvars.iv49
  %22 = load ptr, ptr %21, align 8
  %indvars.iv.next50 = add nuw nsw i64 %indvars.iv49, 1
  %23 = load i32, ptr %22, align 4
  %24 = icmp eq i32 %23, 57
  br i1 %24, label %25, label %27

25:                                               ; preds = %.lr.ph36
  %indvars51 = trunc i64 %indvars.iv.next50 to i32
  %26 = tail call ptr @bms_add_member(ptr noundef %.22633, i32 noundef %indvars51) #10
  %.pre59 = load i32, ptr %12, align 4
  br label %27

27:                                               ; preds = %25, %.lr.ph36
  %28 = phi i32 [ %.pre59, %25 ], [ %19, %.lr.ph36 ]
  %.3 = phi ptr [ %26, %25 ], [ %.22633, %.lr.ph36 ]
  %29 = sext i32 %28 to i64
  %30 = icmp slt i64 %indvars.iv.next50, %29
  br i1 %30, label %.lr.ph36, label %.thread4

.lr.ph22:                                         ; preds = %.lr.ph, %39
  %31 = phi i32 [ %40, %39 ], [ %14, %.lr.ph ]
  %indvars.iv = phi i64 [ %indvars.iv.next, %39 ], [ 0, %.lr.ph ]
  %.51519 = phi ptr [ %.6, %39 ], [ %.03970, %.lr.ph ]
  %32 = load ptr, ptr %13, align 8
  %33 = getelementptr inbounds nuw %union.ListCell, ptr %32, i64 %indvars.iv
  %34 = load ptr, ptr %33, align 8
  %indvars.iv.next = add nuw nsw i64 %indvars.iv, 1
  %35 = load i32, ptr %34, align 4
  %36 = icmp eq i32 %35, 57
  br i1 %36, label %39, label %37

37:                                               ; preds = %.lr.ph22
  %indvars = trunc i64 %indvars.iv.next to i32
  %38 = tail call ptr @bms_del_member(ptr noundef %.51519, i32 noundef %indvars) #10
  %.pre = load i32, ptr %12, align 4
  br label %39

39:                                               ; preds = %37, %.lr.ph22
  %40 = phi i32 [ %31, %.lr.ph22 ], [ %.pre, %37 ]
  %.6 = phi ptr [ %.51519, %.lr.ph22 ], [ %38, %37 ]
  %41 = sext i32 %40 to i64
  %42 = icmp slt i64 %indvars.iv.next, %41
  br i1 %42, label %.lr.ph22, label %.thread4

.thread4:                                         ; preds = %39, %27
  %.4 = phi ptr [ %.3, %27 ], [ %.6, %39 ]
  %.not49 = icmp eq ptr %.4, null
  br i1 %.not49, label %.thread, label %.thread4.thread63

.thread:                                          ; preds = %.thread4.thread63, %.thread4, %.preheader, %.lr.ph27, %.lr.ph40, %0
  %.1 = phi ptr [ null, %0 ], [ null, %.lr.ph40 ], [ null, %.lr.ph27 ], [ null, %.preheader ], [ null, %.thread4 ], [ %.466, %.thread4.thread63 ]
  ret ptr %.1
}